; Function Attrs: mustprogress nounwind uwtable
define internal fastcc void @_ZNSt10unique_ptrIN9grpc_core12_GLOBAL__N_121InprocClientTransportENS0_16OrphanableDeleteEED2Ev(ptr nocapture noundef nonnull align 8 dereferenceable(8) %this) unnamed_addr #7 align 2 personality ptr @__gxx_personality_v0 {
entry:
  %0 = load ptr, ptr %this, align 8
  %cmp.not = icmp eq ptr %0, null
  br i1 %cmp.not, label %if.end, label %if.then

if.then:                                          ; preds = %entry
  tail call void @_ZN9grpc_core12_GLOBAL__N_121InprocClientTransportD2Ev(ptr noundef nonnull align 8 dereferenceable(24) %0) #22
  tail call void @_ZdlPv(ptr noundef nonnull %0) #25
  br label %if.end

if.end:                                           ; preds = %if.then, %entry
  store ptr null, ptr %this, align 8
  ret void
}